target datalayout = "e-m:e-p270:32:32-p271:32:32-p272:64:64-i64:64-i128:128-f80:128-n8:16:32:64-S128"
target triple = "x86_64-pc-linux-gnu"

%struct.ossl_param_bld_st = type { i64, i64, ptr }

@.str = private unnamed_addr constant [32 x i8] c"../openssl/crypto/param_build.c\00", align 1

; Function Attrs: inlinehint nounwind uwtable
define internal ptr @sk_OSSL_PARAM_BLD_DEF_new_null() #3 {
  %1 = call ptr @OPENSSL_sk_new_null()
  ret ptr %1
}

; Function Attrs: nounwind uwtable
define ptr @OSSL_PARAM_BLD_new() #0 {
  %1 = alloca ptr, align 8
  call void @llvm.lifetime.start.p0(i64 8, ptr %1) #8
  %2 = call noalias ptr @CRYPTO_zalloc(i64 noundef 24, ptr noundef @.str, i32 noundef 93)
  store ptr %2, ptr %1, align 8, !tbaa !3
  %3 = load ptr, ptr %1, align 8, !tbaa !3
  %4 = icmp ne ptr %3, null
  br i1 %4, label %5, label %16

5:                                                ; preds = %0
  %6 = call ptr @sk_OSSL_PARAM_BLD_DEF_new_null()
  %7 = load ptr, ptr %1, align 8, !tbaa !3
  %8 = getelementptr inbounds nuw %struct.ossl_param_bld_st, ptr %7, i32 0, i32 2
  store ptr %6, ptr %8, align 8, !tbaa !8
  %9 = load ptr, ptr %1, align 8, !tbaa !3
  %10 = getelementptr inbounds nuw %struct.ossl_param_bld_st, ptr %9, i32 0, i32 2
  %11 = load ptr, ptr %10, align 8, !tbaa !8
  %12 = icmp eq ptr %11, null
  br i1 %12, label %13, label %15

13:                                               ; preds = %5
  %14 = load ptr, ptr %1, align 8, !tbaa !3
  call void @CRYPTO_free(ptr noundef %14, ptr noundef @.str, i32 noundef 98)
  store ptr null, ptr %1, align 8, !tbaa !3
  br label %15

15:                                               ; preds = %13, %5
  br label %16

16:                                               ; preds = %15, %0
  %17 = load ptr, ptr %1, align 8, !tbaa !3
  call void @llvm.lifetime.end.p0(i64 8, ptr %1) #8
  ret ptr %17
}