; Function Attrs: nounwind uwtable
define ptr @OSSL_PARAM_BLD_new() local_unnamed_addr #0 {
  %1 = tail call noalias ptr @CRYPTO_zalloc(i64 noundef 24, ptr noundef nonnull @.str, i32 noundef 93) #7
  %.not = icmp eq ptr %1, null
  br i1 %.not, label %7, label %2

2:                                                ; preds = %0
  %3 = tail call ptr @OPENSSL_sk_new_null() #7
  %4 = getelementptr inbounds nuw i8, ptr %1, i64 16
  store ptr %3, ptr %4, align 8, !tbaa !3
  %5 = icmp eq ptr %3, null
  br i1 %5, label %6, label %7

6:                                                ; preds = %2
  tail call void @CRYPTO_free(ptr noundef nonnull %1, ptr noundef nonnull @.str, i32 noundef 98) #7
  br label %7

7:                                                ; preds = %2, %6, %0
  %.0 = phi ptr [ null, %6 ], [ %1, %2 ], [ null, %0 ]
  ret ptr %.0
}